target datalayout = "e-m:e-p270:32:32-p271:32:32-p272:64:64-i64:64-i128:128-f80:128-n8:16:32:64-S128"
target triple = "x86_64-pc-linux-gnu"

%class.XPhysicalMemory = type { %class.GrowableArrayCHeap }
%class.GrowableArrayCHeap = type { %class.GrowableArrayWithAllocator }
%class.GrowableArrayWithAllocator = type { %class.GrowableArrayView }
%class.GrowableArrayView = type { %class.GrowableArrayBase, ptr }
%class.GrowableArrayBase = type { i32, i32 }
%class.XPhysicalMemorySegment = type <{ i64, i64, i8, [7 x i8] }>

; Function Attrs: mustprogress nounwind uwtable
define linkonce_odr hidden void @_ZN17GrowableArrayBaseC2Eii(ptr noundef nonnull align 4 dereferenceable(8) %0, i32 noundef %1, i32 noundef %2) unnamed_addr #1 comdat align 2 {
  %4 = alloca ptr, align 8
  %5 = alloca i32, align 4
  %6 = alloca i32, align 4
  store ptr %0, ptr %4, align 8
  store i32 %1, ptr %5, align 4
  store i32 %2, ptr %6, align 4
  %7 = load ptr, ptr %4, align 8
  %8 = getelementptr inbounds %class.GrowableArrayBase, ptr %7, i32 0, i32 0
  %9 = load i32, ptr %6, align 4
  store i32 %9, ptr %8, align 4
  %10 = getelementptr inbounds %class.GrowableArrayBase, ptr %7, i32 0, i32 1
  %11 = load i32, ptr %5, align 4
  store i32 %11, ptr %10, align 4
  ret void
}

; Function Attrs: mustprogress nounwind uwtable
define linkonce_odr hidden noundef nonnull align 8 dereferenceable(17) ptr @_ZNK17GrowableArrayViewI22XPhysicalMemorySegmentE2atEi(ptr noundef nonnull align 8 dereferenceable(16) %0, i32 noundef %1) #1 comdat align 2 {
  %3 = alloca ptr, align 8
  %4 = alloca i32, align 4
  store ptr %0, ptr %3, align 8
  store i32 %1, ptr %4, align 4
  %5 = load ptr, ptr %3, align 8
  %6 = getelementptr inbounds %class.GrowableArrayView, ptr %5, i32 0, i32 1
  %7 = load ptr, ptr %6, align 8
  %8 = load i32, ptr %4, align 4
  %9 = sext i32 %8 to i64
  %10 = getelementptr inbounds %class.XPhysicalMemorySegment, ptr %7, i64 %9
  ret ptr %10
}

; Function Attrs: mustprogress nounwind uwtable
define linkonce_odr hidden noundef i32 @_ZNK17GrowableArrayBase6lengthEv(ptr noundef nonnull align 4 dereferenceable(8) %0) #1 comdat align 2 {
  %2 = alloca ptr, align 8
  store ptr %0, ptr %2, align 8
  %3 = load ptr, ptr %2, align 8
  %4 = getelementptr inbounds %class.GrowableArrayBase, ptr %3, i32 0, i32 0
  %5 = load i32, ptr %4, align 4
  ret i32 %5
}

; Function Attrs: mustprogress nounwind uwtable
define linkonce_odr hidden void @_ZN22XPhysicalMemorySegmentC2Ev(ptr noundef nonnull align 8 dereferenceable(17) %0) unnamed_addr #1 comdat align 2 {
  %2 = alloca ptr, align 8
  store ptr %0, ptr %2, align 8
  %3 = load ptr, ptr %2, align 8
  %4 = getelementptr inbounds %class.XPhysicalMemorySegment, ptr %3, i32 0, i32 0
  store i64 -1, ptr %4, align 8
  %5 = getelementptr inbounds %class.XPhysicalMemorySegment, ptr %3, i32 0, i32 1
  store i64 -1, ptr %5, align 8
  %6 = getelementptr inbounds %class.XPhysicalMemorySegment, ptr %3, i32 0, i32 2
  store i8 0, ptr %6, align 8
  ret void
}

; Function Attrs: mustprogress nounwind uwtable
define linkonce_odr hidden void @_ZN17GrowableArrayViewI22XPhysicalMemorySegmentEC2EPS0_ii(ptr noundef nonnull align 8 dereferenceable(16) %0, ptr noundef %1, i32 noundef %2, i32 noundef %3) unnamed_addr #1 comdat align 2 {
  %5 = alloca ptr, align 8
  %6 = alloca ptr, align 8
  %7 = alloca i32, align 4
  %8 = alloca i32, align 4
  store ptr %0, ptr %5, align 8
  store ptr %1, ptr %6, align 8
  store i32 %2, ptr %7, align 4
  store i32 %3, ptr %8, align 4
  %9 = load ptr, ptr %5, align 8
  %10 = load i32, ptr %7, align 4
  %11 = load i32, ptr %8, align 4
  call void @_ZN17GrowableArrayBaseC2Eii(ptr noundef nonnull align 4 dereferenceable(8) %9, i32 noundef %10, i32 noundef %11)
  %12 = getelementptr inbounds %class.GrowableArrayView, ptr %9, i32 0, i32 1
  %13 = load ptr, ptr %6, align 8
  store ptr %13, ptr %12, align 8
  ret void
}

; Function Attrs: mustprogress nounwind uwtable
define linkonce_odr hidden noundef nonnull align 8 dereferenceable(17) ptr @_ZNK15XPhysicalMemory7segmentEi(ptr noundef nonnull align 8 dereferenceable(16) %0, i32 noundef %1) #1 comdat align 2 {
  %3 = alloca ptr, align 8
  %4 = alloca i32, align 4
  store ptr %0, ptr %3, align 8
  store i32 %1, ptr %4, align 4
  %5 = load ptr, ptr %3, align 8
  %6 = getelementptr inbounds %class.XPhysicalMemory, ptr %5, i32 0, i32 0
  %7 = load i32, ptr %4, align 4
  %8 = call noundef nonnull align 8 dereferenceable(17) ptr @_ZNK17GrowableArrayViewI22XPhysicalMemorySegmentE2atEi(ptr noundef nonnull align 8 dereferenceable(16) %6, i32 noundef %7)
  ret ptr %8
}

; Function Attrs: mustprogress nounwind uwtable
define linkonce_odr hidden noundef i32 @_ZNK15XPhysicalMemory9nsegmentsEv(ptr noundef nonnull align 8 dereferenceable(16) %0) #1 comdat align 2 {
  %2 = alloca ptr, align 8
  store ptr %0, ptr %2, align 8
  %3 = load ptr, ptr %2, align 8
  %4 = getelementptr inbounds %class.XPhysicalMemory, ptr %3, i32 0, i32 0
  %5 = call noundef i32 @_ZNK17GrowableArrayBase6lengthEv(ptr noundef nonnull align 4 dereferenceable(8) %4)
  ret i32 %5
}

; Function Attrs: mustprogress nounwind uwtable
define linkonce_odr hidden void @_ZN26GrowableArrayWithAllocatorI22XPhysicalMemorySegment18GrowableArrayCHeapIS0_L8MEMFLAGS5EEEC2EPS0_i(ptr noundef nonnull align 8 dereferenceable(16) %0, ptr noundef %1, i32 noundef %2) unnamed_addr #1 comdat align 2 {
  %4 = alloca ptr, align 8
  %5 = alloca ptr, align 8
  %6 = alloca i32, align 4
  %7 = alloca i32, align 4
  store ptr %0, ptr %4, align 8
  store ptr %1, ptr %5, align 8
  store i32 %2, ptr %6, align 4
  %8 = load ptr, ptr %4, align 8
  %9 = load ptr, ptr %5, align 8
  %10 = load i32, ptr %6, align 4
  call void @_ZN17GrowableArrayViewI22XPhysicalMemorySegmentEC2EPS0_ii(ptr noundef nonnull align 8 dereferenceable(16) %8, ptr noundef %9, i32 noundef %10, i32 noundef 0)
  store i32 0, ptr %7, align 4
  br label %11

11:                                               ; preds = %20, %3
  %12 = load i32, ptr %7, align 4
  %13 = load i32, ptr %6, align 4
  %14 = icmp slt i32 %12, %13
  br i1 %14, label %15, label %23

15:                                               ; preds = %11
  %16 = load ptr, ptr %5, align 8
  %17 = load i32, ptr %7, align 4
  %18 = sext i32 %17 to i64
  %19 = getelementptr inbounds %class.XPhysicalMemorySegment, ptr %16, i64 %18
  call void @_ZN22XPhysicalMemorySegmentC2Ev(ptr noundef nonnull align 8 dereferenceable(17) %19)
  br label %20

20:                                               ; preds = %15
  %21 = load i32, ptr %7, align 4
  %22 = add nsw i32 %21, 1
  store i32 %22, ptr %7, align 4
  br label %11, !llvm.loop !19

23:                                               ; preds = %11
  ret void
}

; Function Attrs: mustprogress nounwind uwtable
define linkonce_odr hidden noundef ptr @_ZN18GrowableArrayCHeapI22XPhysicalMemorySegmentL8MEMFLAGS5EE8allocateEiS1_(i32 noundef %0, i8 noundef zeroext %1) #1 comdat align 2 {
  %3 = alloca ptr, align 8
  %4 = alloca i32, align 4
  %5 = alloca i8, align 1
  store i32 %0, ptr %4, align 4
  store i8 %1, ptr %5, align 1
  %6 = load i32, ptr %4, align 4
  %7 = icmp eq i32 %6, 0
  br i1 %7, label %8, label %9

8:                                                ; preds = %2
  store ptr null, ptr %3, align 8
  br label %13

9:                                                ; preds = %2
  %10 = load i32, ptr %4, align 4
  %11 = load i8, ptr %5, align 1
  %12 = call noundef ptr @_ZN27GrowableArrayCHeapAllocator8allocateEii8MEMFLAGS(i32 noundef %10, i32 noundef 24, i8 noundef zeroext %11)
  store ptr %12, ptr %3, align 8
  br label %13

13:                                               ; preds = %9, %8
  %14 = load ptr, ptr %3, align 8
  ret ptr %14
}

; Function Attrs: mustprogress nounwind uwtable
define hidden void @_ZN15XPhysicalMemory12add_segmentsERKS_(ptr noundef nonnull align 8 dereferenceable(16) %0, ptr noundef nonnull align 8 dereferenceable(16) %1) #1 align 2 {
  %3 = alloca ptr, align 8
  %4 = alloca ptr, align 8
  %5 = alloca i32, align 4
  store ptr %0, ptr %3, align 8
  store ptr %1, ptr %4, align 8
  %6 = load ptr, ptr %3, align 8
  store i32 0, ptr %5, align 4
  br label %7

7:                                                ; preds = %16, %2
  %8 = load i32, ptr %5, align 4
  %9 = load ptr, ptr %4, align 8
  %10 = call noundef i32 @_ZNK15XPhysicalMemory9nsegmentsEv(ptr noundef nonnull align 8 dereferenceable(16) %9)
  %11 = icmp slt i32 %8, %10
  br i1 %11, label %12, label %19

12:                                               ; preds = %7
  %13 = load ptr, ptr %4, align 8
  %14 = load i32, ptr %5, align 4
  %15 = call noundef nonnull align 8 dereferenceable(17) ptr @_ZNK15XPhysicalMemory7segmentEi(ptr noundef nonnull align 8 dereferenceable(16) %13, i32 noundef %14)
  call void @_ZN15XPhysicalMemory11add_segmentERK22XPhysicalMemorySegment(ptr noundef nonnull align 8 dereferenceable(16) %6, ptr noundef nonnull align 8 dereferenceable(17) %15)
  br label %16

16:                                               ; preds = %12
  %17 = load i32, ptr %5, align 4
  %18 = add nsw i32 %17, 1
  store i32 %18, ptr %5, align 4
  br label %7, !llvm.loop !8

19:                                               ; preds = %7
  ret void
}

; Function Attrs: mustprogress nounwind uwtable
define linkonce_odr hidden void @_ZN18GrowableArrayCHeapI22XPhysicalMemorySegmentL8MEMFLAGS5EEC2Ei(ptr noundef nonnull align 8 dereferenceable(16) %0, i32 noundef %1) unnamed_addr #1 comdat align 2 {
  %3 = alloca ptr, align 8
  %4 = alloca i32, align 4
  store ptr %0, ptr %3, align 8
  store i32 %1, ptr %4, align 4
  %5 = load ptr, ptr %3, align 8
  %6 = load i32, ptr %4, align 4
  %7 = call noundef ptr @_ZN18GrowableArrayCHeapI22XPhysicalMemorySegmentL8MEMFLAGS5EE8allocateEiS1_(i32 noundef %6, i8 noundef zeroext 5)
  %8 = load i32, ptr %4, align 4
  call void @_ZN26GrowableArrayWithAllocatorI22XPhysicalMemorySegment18GrowableArrayCHeapIS0_L8MEMFLAGS5EEEC2EPS0_i(ptr noundef nonnull align 8 dereferenceable(16) %5, ptr noundef %7, i32 noundef %8)
  ret void
}

; Function Attrs: mustprogress nounwind uwtable
define hidden void @_ZN15XPhysicalMemoryC2ERKS_(ptr noundef nonnull align 8 dereferenceable(16) %0, ptr noundef nonnull align 8 dereferenceable(16) %1) unnamed_addr #1 align 2 {
  %3 = alloca ptr, align 8
  %4 = alloca ptr, align 8
  store ptr %0, ptr %3, align 8
  store ptr %1, ptr %4, align 8
  %5 = load ptr, ptr %3, align 8
  %6 = getelementptr inbounds %class.XPhysicalMemory, ptr %5, i32 0, i32 0
  call void @_ZN18GrowableArrayCHeapI22XPhysicalMemorySegmentL8MEMFLAGS5EEC2Ei(ptr noundef nonnull align 8 dereferenceable(16) %6, i32 noundef 0)
  %7 = load ptr, ptr %4, align 8
  call void @_ZN15XPhysicalMemory12add_segmentsERKS_(ptr noundef nonnull align 8 dereferenceable(16) %5, ptr noundef nonnull align 8 dereferenceable(16) %7)
  ret void
}