; Function Attrs: mustprogress nounwind uwtable
define hidden void @_ZN15XPhysicalMemoryC2ERKS_(ptr noundef nonnull align 8 dereferenceable(16) %0, ptr nocapture noundef nonnull readonly align 8 dereferenceable(16) %1) unnamed_addr #1 align 2 {
  tail call void @llvm.memset.p0.i64(ptr noundef nonnull align 8 dereferenceable(16) %0, i8 0, i64 16, i1 false)
  %3 = load i32, ptr %1, align 8
  %4 = icmp sgt i32 %3, 0
  br i1 %4, label %.lr.ph.i, label %_ZN15XPhysicalMemory12add_segmentsERKS_.exit

.lr.ph.i:                                         ; preds = %2
  %5 = getelementptr inbounds i8, ptr %1, i64 8
  br label %6

6:                                                ; preds = %6, %.lr.ph.i
  %indvars.iv.i = phi i64 [ 0, %.lr.ph.i ], [ %indvars.iv.next.i, %6 ]
  %7 = load ptr, ptr %5, align 8
  %8 = getelementptr inbounds %class.XPhysicalMemorySegment, ptr %7, i64 %indvars.iv.i
  tail call void @_ZN15XPhysicalMemory11add_segmentERK22XPhysicalMemorySegment(ptr noundef nonnull align 8 dereferenceable(16) %0, ptr noundef nonnull align 8 dereferenceable(17) %8)
  %indvars.iv.next.i = add nuw nsw i64 %indvars.iv.i, 1
  %9 = load i32, ptr %1, align 8
  %10 = sext i32 %9 to i64
  %11 = icmp slt i64 %indvars.iv.next.i, %10
  br i1 %11, label %6, label %_ZN15XPhysicalMemory12add_segmentsERKS_.exit, !llvm.loop !9

_ZN15XPhysicalMemory12add_segmentsERKS_.exit:     ; preds = %6, %2
  ret void
}